; Function Attrs: mustprogress uwtable
define void @_ZN7rocksdb2DB25DestroyColumnFamilyHandleEPNS_18ColumnFamilyHandleE(ptr noalias sret(%"class.rocksdb::Status") align 8 %agg.result, ptr noundef nonnull align 8 dereferenceable(8) %this, ptr noundef %column_family) unnamed_addr #5 align 2 personality ptr @__gxx_personality_v0 {
entry:
  %ref.tmp = alloca %"class.rocksdb::Slice", align 8
  %ref.tmp2 = alloca %"class.rocksdb::Slice", align 8
  %vtable = load ptr, ptr %this, align 8
  %vfn = getelementptr inbounds i8, ptr %vtable, i64 1064
  %0 = load ptr, ptr %vfn, align 8
  %call = tail call noundef ptr %0(ptr noundef nonnull align 8 dereferenceable(8) %this)
  %cmp = icmp eq ptr %call, %column_family
  br i1 %cmp, label %if.then, label %if.end

if.then:                                          ; preds = %entry
  store ptr @.str.153, ptr %ref.tmp, align 8
  %size_.i = getelementptr inbounds i8, ptr %ref.tmp, i64 8
  store i64 59, ptr %size_.i, align 8
  store ptr @.str, ptr %ref.tmp2, align 8
  %size_.i2 = getelementptr inbounds i8, ptr %ref.tmp2, i64 8
  store i64 0, ptr %size_.i2, align 8
  call void @_ZN7rocksdb6StatusC2ENS0_4CodeENS0_7SubCodeERKNS_5SliceES5_NS0_8SeverityE(ptr noundef nonnull align 8 dereferenceable(16) %agg.result, i8 noundef zeroext 4, i8 noundef zeroext 0, ptr noundef nonnull align 8 dereferenceable(16) %ref.tmp, ptr noundef nonnull align 8 dereferenceable(16) %ref.tmp2, i8 noundef zeroext 0)
  br label %return

if.end:                                           ; preds = %entry
  %isnull = icmp eq ptr %column_family, null
  br i1 %isnull, label %delete.end, label %delete.notnull

delete.notnull:                                   ; preds = %if.end
  %vtable3 = load ptr, ptr %column_family, align 8
  %vfn4 = getelementptr inbounds i8, ptr %vtable3, i64 8
  %1 = load ptr, ptr %vfn4, align 8
  tail call void %1(ptr noundef nonnull align 8 dereferenceable(8) %column_family) #34
  br label %delete.end

delete.end:                                       ; preds = %delete.notnull, %if.end
  %state_.i.i = getelementptr inbounds i8, ptr %agg.result, i64 8
  store ptr null, ptr %state_.i.i, align 8, !alias.scope !444
  tail call void @llvm.memset.p0.i64(ptr noundef nonnull align 8 dereferenceable(6) %agg.result, i8 0, i64 6, i1 false), !alias.scope !444
  br label %return

return:                                           ; preds = %delete.end, %if.then
  ret void
}